target datalayout = "e-m:e-p270:32:32-p271:32:32-p272:64:64-i64:64-i128:128-f80:128-n8:16:32:64-S128"
target triple = "x86_64-pc-linux-gnu"

%struct._stritem = type { ptr, ptr, ptr, i32, i32, i32, i16, i16, i8, i8, [0 x %union.anon] }
%union.anon = type { i64 }

@hashpower = dso_local global i32 16, align 4
@primary_hashtable = internal global ptr null, align 8
@expanding = internal global i8 0, align 1
@expand_bucket = internal global i64 0, align 8
@old_hashtable = internal global ptr null, align 8

; Function Attrs: nounwind uwtable
define dso_local ptr @assoc_find(ptr noundef %0, i64 noundef %1, i32 noundef %2) #0 {
  %4 = alloca ptr, align 8
  %5 = alloca i64, align 8
  %6 = alloca i32, align 4
  %7 = alloca ptr, align 8
  %8 = alloca i64, align 8
  %9 = alloca ptr, align 8
  store ptr %0, ptr %4, align 8, !tbaa !19
  store i64 %1, ptr %5, align 8, !tbaa !21
  store i32 %2, ptr %6, align 4, !tbaa !4
  call void @llvm.lifetime.start.p0(i64 8, ptr %7) #9
  call void @llvm.lifetime.start.p0(i64 8, ptr %8) #9
  %10 = load i8, ptr @expanding, align 1, !tbaa !22, !range !23, !noundef !24
  %11 = trunc i8 %10 to i1
  br i1 %11, label %12, label %28

12:                                               ; preds = %3
  %13 = load i32, ptr %6, align 4, !tbaa !4
  %14 = zext i32 %13 to i64
  %15 = load i32, ptr @hashpower, align 4, !tbaa !4
  %16 = sub i32 %15, 1
  %17 = zext i32 %16 to i64
  %18 = shl i64 1, %17
  %19 = sub i64 %18, 1
  %20 = and i64 %14, %19
  store i64 %20, ptr %8, align 8, !tbaa !21
  %21 = load i64, ptr @expand_bucket, align 8, !tbaa !21
  %22 = icmp uge i64 %20, %21
  br i1 %22, label %23, label %28

23:                                               ; preds = %12
  %24 = load ptr, ptr @old_hashtable, align 8, !tbaa !8
  %25 = load i64, ptr %8, align 8, !tbaa !21
  %26 = getelementptr inbounds nuw ptr, ptr %24, i64 %25
  %27 = load ptr, ptr %26, align 8, !tbaa !25
  store ptr %27, ptr %7, align 8, !tbaa !25
  br label %39

28:                                               ; preds = %12, %3
  %29 = load ptr, ptr @primary_hashtable, align 8, !tbaa !8
  %30 = load i32, ptr %6, align 4, !tbaa !4
  %31 = zext i32 %30 to i64
  %32 = load i32, ptr @hashpower, align 4, !tbaa !4
  %33 = zext i32 %32 to i64
  %34 = shl i64 1, %33
  %35 = sub i64 %34, 1
  %36 = and i64 %31, %35
  %37 = getelementptr inbounds nuw ptr, ptr %29, i64 %36
  %38 = load ptr, ptr %37, align 8, !tbaa !25
  store ptr %38, ptr %7, align 8, !tbaa !25
  br label %39

39:                                               ; preds = %28, %23
  call void @llvm.lifetime.start.p0(i64 8, ptr %9) #9
  store ptr null, ptr %9, align 8, !tbaa !25
  br label %40

40:                                               ; preds = %67, %39
  %41 = load ptr, ptr %7, align 8, !tbaa !25
  %42 = icmp ne ptr %41, null
  br i1 %42, label %43, label %71

43:                                               ; preds = %40
  %44 = load i64, ptr %5, align 8, !tbaa !21
  %45 = load ptr, ptr %7, align 8, !tbaa !25
  %46 = getelementptr inbounds nuw %struct._stritem, ptr %45, i32 0, i32 9
  %47 = load i8, ptr %46, align 1, !tbaa !27
  %48 = zext i8 %47 to i64
  %49 = icmp eq i64 %44, %48
  br i1 %49, label %50, label %67

50:                                               ; preds = %43
  %51 = load ptr, ptr %4, align 8, !tbaa !19
  %52 = load ptr, ptr %7, align 8, !tbaa !25
  %53 = getelementptr inbounds nuw %struct._stritem, ptr %52, i32 0, i32 10
  %54 = load ptr, ptr %7, align 8, !tbaa !25
  %55 = getelementptr inbounds nuw %struct._stritem, ptr %54, i32 0, i32 7
  %56 = load i16, ptr %55, align 2, !tbaa !28
  %57 = zext i16 %56 to i32
  %58 = and i32 %57, 2
  %59 = icmp ne i32 %58, 0
  %60 = select i1 %59, i64 8, i64 0
  %61 = getelementptr inbounds nuw i8, ptr %53, i64 %60
  %62 = load i64, ptr %5, align 8, !tbaa !21
  %63 = call i32 @memcmp(ptr noundef %51, ptr noundef %61, i64 noundef %62) #11
  %64 = icmp eq i32 %63, 0
  br i1 %64, label %65, label %67

65:                                               ; preds = %50
  %66 = load ptr, ptr %7, align 8, !tbaa !25
  store ptr %66, ptr %9, align 8, !tbaa !25
  br label %71

67:                                               ; preds = %50, %43
  %68 = load ptr, ptr %7, align 8, !tbaa !25
  %69 = getelementptr inbounds nuw %struct._stritem, ptr %68, i32 0, i32 2
  %70 = load ptr, ptr %69, align 8, !tbaa !25
  store ptr %70, ptr %7, align 8, !tbaa !25
  br label %40, !llvm.loop !30

71:                                               ; preds = %65, %40
  %72 = load ptr, ptr %9, align 8, !tbaa !25
  call void @llvm.lifetime.end.p0(i64 8, ptr %9) #9
  call void @llvm.lifetime.end.p0(i64 8, ptr %8) #9
  call void @llvm.lifetime.end.p0(i64 8, ptr %7) #9
  ret ptr %72
}