; Function Attrs: nofree nounwind memory(read, inaccessiblemem: none) uwtable
define dso_local ptr @assoc_find(ptr noundef readonly captures(none) %0, i64 noundef %1, i32 noundef %2) local_unnamed_addr #5 {
  %.b15 = load i1, ptr @expanding, align 1
  %.pre = load i32, ptr @hashpower, align 4, !tbaa !4
  %4 = zext i32 %2 to i64
  br i1 %.b15, label %5, label %._crit_edge24

5:                                                ; preds = %3
  %6 = add i32 %.pre, -1
  %7 = zext nneg i32 %6 to i64
  %notmask = shl nsw i64 -1, %7
  %8 = xor i64 %notmask, -1
  %9 = and i64 %8, %4
  %10 = load i64, ptr @expand_bucket, align 8, !tbaa !19
  %.not = icmp ult i64 %9, %10
  br i1 %.not, label %._crit_edge24, label %11

11:                                               ; preds = %5
  %12 = load ptr, ptr @old_hashtable, align 8, !tbaa !8
  %13 = getelementptr inbounds nuw ptr, ptr %12, i64 %9
  br label %19

._crit_edge24:                                    ; preds = %3, %5
  %14 = load ptr, ptr @primary_hashtable, align 8, !tbaa !8
  %15 = zext nneg i32 %.pre to i64
  %notmask16 = shl nsw i64 -1, %15
  %16 = xor i64 %notmask16, -1
  %17 = and i64 %4, %16
  %18 = getelementptr inbounds nuw ptr, ptr %14, i64 %17
  br label %19

19:                                               ; preds = %._crit_edge24, %11
  %.012.in = phi ptr [ %13, %11 ], [ %18, %._crit_edge24 ]
  %.119 = load ptr, ptr %.012.in, align 8, !tbaa !20
  %.not1720 = icmp eq ptr %.119, null
  br i1 %.not1720, label %._crit_edge, label %.lr.ph

.lr.ph:                                           ; preds = %19, %33
  %.121 = phi ptr [ %.1, %33 ], [ %.119, %19 ]
  %20 = getelementptr inbounds nuw i8, ptr %.121, i64 41
  %21 = load i8, ptr %20, align 1, !tbaa !22
  %22 = zext i8 %21 to i64
  %23 = icmp eq i64 %1, %22
  br i1 %23, label %24, label %33

24:                                               ; preds = %.lr.ph
  %25 = getelementptr inbounds nuw i8, ptr %.121, i64 48
  %26 = getelementptr inbounds nuw i8, ptr %.121, i64 38
  %27 = load i16, ptr %26, align 2, !tbaa !23
  %28 = shl i16 %27, 2
  %29 = and i16 %28, 8
  %30 = zext nneg i16 %29 to i64
  %31 = getelementptr inbounds nuw i8, ptr %25, i64 %30
  %bcmp = tail call i32 @bcmp(ptr %0, ptr nonnull %31, i64 %1)
  %32 = icmp eq i32 %bcmp, 0
  br i1 %32, label %._crit_edge, label %33

33:                                               ; preds = %24, %.lr.ph
  %34 = getelementptr inbounds nuw i8, ptr %.121, i64 16
  %.1 = load ptr, ptr %34, align 8, !tbaa !20
  %.not17 = icmp eq ptr %.1, null
  br i1 %.not17, label %._crit_edge, label %.lr.ph, !llvm.loop !25

._crit_edge:                                      ; preds = %33, %24, %19
  %.1.lcssa = phi ptr [ null, %19 ], [ %.121, %24 ], [ null, %33 ]
  ret ptr %.1.lcssa
}